target datalayout = "e-m:e-p270:32:32-p271:32:32-p272:64:64-i64:64-i128:128-f80:128-n8:16:32:64-S128"
target triple = "x86_64-pc-linux-gnu"

%struct.strbuf = type { i64, i64, ptr }
%struct.object_id = type { [32 x i8], i32 }

@the_repository = external global ptr, align 8
@.str.33 = private unnamed_addr constant [1 x i8] zeroinitializer, align 1
@git_gettext_enabled = external global i32, align 4
@__const.replace_object_oid.ref = private unnamed_addr constant %struct.strbuf { i64 0, i64 0, ptr @strbuf_slopbuf }, align 8
@__const.replace_object_oid.err = private unnamed_addr constant %struct.strbuf { i64 0, i64 0, ptr @strbuf_slopbuf }, align 8
@.str.39 = private unnamed_addr constant [136 x i8] c"Objects must be of the same type.\0A'%s' points to a replaced object of type '%s'\0Awhile '%s' points to a replacement object of type '%s'.\00", align 1
@.str.40 = private unnamed_addr constant [3 x i8] c"%s\00", align 1

; Function Attrs: inlinehint nounwind uwtable
define internal i32 @const_error() #4 {
  ret i32 -1
}

; Function Attrs: inlinehint nounwind uwtable
define internal ptr @_(ptr noundef %0) #4 {
  %2 = alloca ptr, align 8
  %3 = alloca ptr, align 8
  store ptr %0, ptr %3, align 8, !tbaa !11
  %4 = load ptr, ptr %3, align 8, !tbaa !11
  %5 = load i8, ptr %4, align 1, !tbaa !30
  %6 = icmp ne i8 %5, 0
  br i1 %6, label %8, label %7

7:                                                ; preds = %1
  store ptr @.str.33, ptr %2, align 8
  br label %16

8:                                                ; preds = %1
  %9 = load i32, ptr @git_gettext_enabled, align 4, !tbaa !4
  %10 = icmp ne i32 %9, 0
  br i1 %10, label %13, label %11

11:                                               ; preds = %8
  %12 = load ptr, ptr %3, align 8, !tbaa !11
  store ptr %12, ptr %2, align 8
  br label %16

13:                                               ; preds = %8
  %14 = load ptr, ptr %3, align 8, !tbaa !11
  %15 = call ptr @dcgettext(ptr noundef null, ptr noundef %14, i32 noundef 5) #10
  store ptr %15, ptr %2, align 8
  br label %16

16:                                               ; preds = %13, %11, %7
  %17 = load ptr, ptr %2, align 8
  ret ptr %17
}

; Function Attrs: nounwind uwtable
define internal i32 @replace_object_oid(ptr noundef %0, ptr noundef %1, ptr noundef %2, ptr noundef %3, i32 noundef %4) #0 {
  %6 = alloca i32, align 4
  %7 = alloca ptr, align 8
  %8 = alloca ptr, align 8
  %9 = alloca ptr, align 8
  %10 = alloca ptr, align 8
  %11 = alloca i32, align 4
  %12 = alloca %struct.object_id, align 4
  %13 = alloca i32, align 4
  %14 = alloca i32, align 4
  %15 = alloca %struct.strbuf, align 8
  %16 = alloca ptr, align 8
  %17 = alloca %struct.strbuf, align 8
  %18 = alloca i32, align 4
  %19 = alloca i32, align 4
  store ptr %0, ptr %7, align 8, !tbaa !11
  store ptr %1, ptr %8, align 8, !tbaa !39
  store ptr %2, ptr %9, align 8, !tbaa !11
  store ptr %3, ptr %10, align 8, !tbaa !39
  store i32 %4, ptr %11, align 4, !tbaa !4
  call void @llvm.lifetime.start.p0(i64 36, ptr %12) #10
  call void @llvm.lifetime.start.p0(i64 4, ptr %13) #10
  call void @llvm.lifetime.start.p0(i64 4, ptr %14) #10
  call void @llvm.lifetime.start.p0(i64 24, ptr %15) #10
  call void @llvm.memcpy.p0.p0.i64(ptr align 8 %15, ptr align 8 @__const.replace_object_oid.ref, i64 24, i1 false)
  call void @llvm.lifetime.start.p0(i64 8, ptr %16) #10
  call void @llvm.lifetime.start.p0(i64 24, ptr %17) #10
  call void @llvm.memcpy.p0.p0.i64(ptr align 8 %17, ptr align 8 @__const.replace_object_oid.err, i64 24, i1 false)
  call void @llvm.lifetime.start.p0(i64 4, ptr %18) #10
  store i32 0, ptr %18, align 4, !tbaa !4
  %20 = load ptr, ptr @the_repository, align 8, !tbaa !13
  %21 = load ptr, ptr %8, align 8, !tbaa !39
  %22 = call i32 @oid_object_info(ptr noundef %20, ptr noundef %21, ptr noundef null)
  store i32 %22, ptr %13, align 4, !tbaa !4
  %23 = load ptr, ptr @the_repository, align 8, !tbaa !13
  %24 = load ptr, ptr %10, align 8, !tbaa !39
  %25 = call i32 @oid_object_info(ptr noundef %23, ptr noundef %24, ptr noundef null)
  store i32 %25, ptr %14, align 4, !tbaa !4
  %26 = load i32, ptr %11, align 4, !tbaa !4
  %27 = icmp ne i32 %26, 0
  br i1 %27, label %42, label %28

28:                                               ; preds = %5
  %29 = load i32, ptr %13, align 4, !tbaa !4
  %30 = load i32, ptr %14, align 4, !tbaa !4
  %31 = icmp ne i32 %29, %30
  br i1 %31, label %32, label %42

32:                                               ; preds = %28
  %33 = call ptr @_(ptr noundef @.str.39)
  %34 = load ptr, ptr %7, align 8, !tbaa !11
  %35 = load i32, ptr %13, align 4, !tbaa !4
  %36 = call ptr @type_name(i32 noundef %35)
  %37 = load ptr, ptr %9, align 8, !tbaa !11
  %38 = load i32, ptr %14, align 4, !tbaa !4
  %39 = call ptr @type_name(i32 noundef %38)
  %40 = call i32 (ptr, ...) @error(ptr noundef %33, ptr noundef %34, ptr noundef %36, ptr noundef %37, ptr noundef %39)
  %41 = call i32 @const_error()
  store i32 %41, ptr %6, align 4
  store i32 1, ptr %19, align 4
  br label %73

42:                                               ; preds = %28, %5
  %43 = load ptr, ptr %8, align 8, !tbaa !39
  %44 = load i32, ptr %11, align 4, !tbaa !4
  %45 = call i32 @check_ref_valid(ptr noundef %43, ptr noundef %12, ptr noundef %15, i32 noundef %44)
  %46 = icmp ne i32 %45, 0
  br i1 %46, label %47, label %48

47:                                               ; preds = %42
  call void @strbuf_release(ptr noundef %15)
  store i32 -1, ptr %6, align 4
  store i32 1, ptr %19, align 4
  br label %73

48:                                               ; preds = %42
  %49 = load ptr, ptr @the_repository, align 8, !tbaa !13
  %50 = call ptr @get_main_ref_store(ptr noundef %49)
  %51 = call ptr @ref_store_transaction_begin(ptr noundef %50, i32 noundef 0, ptr noundef %17)
  store ptr %51, ptr %16, align 8, !tbaa !56
  %52 = load ptr, ptr %16, align 8, !tbaa !56
  %53 = icmp ne ptr %52, null
  br i1 %53, label %54, label %65

54:                                               ; preds = %48
  %55 = load ptr, ptr %16, align 8, !tbaa !56
  %56 = getelementptr inbounds nuw %struct.strbuf, ptr %15, i32 0, i32 2
  %57 = load ptr, ptr %56, align 8, !tbaa !36
  %58 = load ptr, ptr %10, align 8, !tbaa !39
  %59 = call i32 @ref_transaction_update(ptr noundef %55, ptr noundef %57, ptr noundef %58, ptr noundef %12, ptr noundef null, ptr noundef null, i32 noundef 0, ptr noundef null, ptr noundef %17)
  %60 = icmp ne i32 %59, 0
  br i1 %60, label %65, label %61

61:                                               ; preds = %54
  %62 = load ptr, ptr %16, align 8, !tbaa !56
  %63 = call i32 @ref_transaction_commit(ptr noundef %62, ptr noundef %17)
  %64 = icmp ne i32 %63, 0
  br i1 %64, label %65, label %70

65:                                               ; preds = %61, %54, %48
  %66 = getelementptr inbounds nuw %struct.strbuf, ptr %17, i32 0, i32 2
  %67 = load ptr, ptr %66, align 8, !tbaa !36
  %68 = call i32 (ptr, ...) @error(ptr noundef @.str.40, ptr noundef %67)
  %69 = call i32 @const_error()
  store i32 %69, ptr %18, align 4, !tbaa !4
  br label %70

70:                                               ; preds = %65, %61
  %71 = load ptr, ptr %16, align 8, !tbaa !56
  call void @ref_transaction_free(ptr noundef %71)
  call void @strbuf_release(ptr noundef %15)
  %72 = load i32, ptr %18, align 4, !tbaa !4
  store i32 %72, ptr %6, align 4
  store i32 1, ptr %19, align 4
  br label %73

73:                                               ; preds = %70, %47, %32
  call void @llvm.lifetime.end.p0(i64 4, ptr %18) #10
  call void @llvm.lifetime.end.p0(i64 24, ptr %17) #10
  call void @llvm.lifetime.end.p0(i64 8, ptr %16) #10
  call void @llvm.lifetime.end.p0(i64 24, ptr %15) #10
  call void @llvm.lifetime.end.p0(i64 4, ptr %14) #10
  call void @llvm.lifetime.end.p0(i64 4, ptr %13) #10
  call void @llvm.lifetime.end.p0(i64 36, ptr %12) #10
  %74 = load i32, ptr %6, align 4
  ret i32 %74
}