; Function Attrs: nounwind uwtable
define internal fastcc range(i32 -1, 1) i32 @replace_object_oid(ptr noundef %0, ptr noundef nonnull %1, ptr noundef %2, ptr noundef nonnull %3, i32 noundef %4) unnamed_addr #0 {
  %6 = alloca %struct.object_id, align 4
  %7 = alloca %struct.strbuf, align 8
  %8 = alloca %struct.strbuf, align 8
  call void @llvm.lifetime.start.p0(i64 36, ptr nonnull %6) #16
  call void @llvm.lifetime.start.p0(i64 24, ptr nonnull %7) #16
  call void @llvm.memcpy.p0.p0.i64(ptr noundef nonnull align 8 dereferenceable(24) %7, ptr noundef nonnull align 8 dereferenceable(24) @__const.convert_graft_file.err, i64 24, i1 false)
  call void @llvm.lifetime.start.p0(i64 24, ptr nonnull %8) #16
  call void @llvm.memcpy.p0.p0.i64(ptr noundef nonnull align 8 dereferenceable(24) %8, ptr noundef nonnull align 8 dereferenceable(24) @__const.convert_graft_file.err, i64 24, i1 false)
  %9 = load ptr, ptr @the_repository, align 8, !tbaa !22
  %10 = tail call i32 @oid_object_info(ptr noundef %9, ptr noundef nonnull %1, ptr noundef null) #16
  %11 = load ptr, ptr @the_repository, align 8, !tbaa !22
  %12 = tail call i32 @oid_object_info(ptr noundef %11, ptr noundef nonnull %3, ptr noundef null) #16
  %.not = icmp eq i32 %4, 0
  br i1 %.not, label %13, label %.split

13:                                               ; preds = %5
  %.not23 = icmp eq i32 %10, %12
  br i1 %.not23, label %.split, label %14

14:                                               ; preds = %13
  %15 = load i32, ptr @git_gettext_enabled, align 4, !tbaa !4
  %.not4.i = icmp eq i32 %15, 0
  br i1 %.not4.i, label %_.exit, label %16

16:                                               ; preds = %14
  %17 = tail call ptr @dcgettext(ptr noundef null, ptr noundef nonnull @.str.39, i32 noundef 5) #16
  br label %_.exit

_.exit:                                           ; preds = %14, %16
  %.0.i = phi ptr [ %17, %16 ], [ @.str.39, %14 ]
  %18 = tail call ptr @type_name(i32 noundef %10) #16
  %19 = tail call ptr @type_name(i32 noundef %12) #16
  %20 = tail call i32 (ptr, ...) @error(ptr noundef %.0.i, ptr noundef %0, ptr noundef %18, ptr noundef %2, ptr noundef %19) #16
  br label %38

.split:                                           ; preds = %13, %5
  %.sink = phi i32 [ %4, %5 ], [ 0, %13 ]
  %21 = call fastcc i32 @check_ref_valid(ptr noundef %1, ptr noundef %6, ptr noundef %7, i32 noundef %.sink)
  %.not24 = icmp eq i32 %21, 0
  br i1 %.not24, label %23, label %22

22:                                               ; preds = %.split
  call void @strbuf_release(ptr noundef nonnull %7) #16
  br label %38

23:                                               ; preds = %.split
  %24 = load ptr, ptr @the_repository, align 8, !tbaa !22
  %25 = call ptr @get_main_ref_store(ptr noundef %24) #16
  %26 = call ptr @ref_store_transaction_begin(ptr noundef %25, i32 noundef 0, ptr noundef nonnull %8) #16
  %.not25 = icmp eq ptr %26, null
  br i1 %.not25, label %33, label %27

27:                                               ; preds = %23
  %28 = getelementptr inbounds nuw i8, ptr %7, i64 16
  %29 = load ptr, ptr %28, align 8, !tbaa !29
  %30 = call i32 @ref_transaction_update(ptr noundef nonnull %26, ptr noundef %29, ptr noundef nonnull %3, ptr noundef nonnull %6, ptr noundef null, ptr noundef null, i32 noundef 0, ptr noundef null, ptr noundef nonnull %8) #16
  %.not26 = icmp eq i32 %30, 0
  br i1 %.not26, label %31, label %33

31:                                               ; preds = %27
  %32 = call i32 @ref_transaction_commit(ptr noundef nonnull %26, ptr noundef nonnull %8) #16
  %.not27 = icmp eq i32 %32, 0
  br i1 %.not27, label %37, label %33

33:                                               ; preds = %31, %27, %23
  %34 = getelementptr inbounds nuw i8, ptr %8, i64 16
  %35 = load ptr, ptr %34, align 8, !tbaa !29
  %36 = call i32 (ptr, ...) @error(ptr noundef nonnull @.str.40, ptr noundef %35) #16
  br label %37

37:                                               ; preds = %33, %31
  %.0 = phi i32 [ -1, %33 ], [ 0, %31 ]
  call void @ref_transaction_free(ptr noundef %26) #16
  call void @strbuf_release(ptr noundef nonnull %7) #16
  br label %38

38:                                               ; preds = %37, %22, %_.exit
  %.017 = phi i32 [ -1, %22 ], [ %.0, %37 ], [ -1, %_.exit ]
  call void @llvm.lifetime.end.p0(i64 24, ptr nonnull %8) #16
  call void @llvm.lifetime.end.p0(i64 24, ptr nonnull %7) #16
  call void @llvm.lifetime.end.p0(i64 36, ptr nonnull %6) #16
  ret i32 %.017
}